; Function Attrs: nounwind uwtable
define hidden void @zim_SplFileObject_flock(ptr nocapture noundef readonly %0, ptr noundef %1) #0 {
  %3 = alloca ptr, align 8
  %4 = alloca i64, align 8
  %5 = getelementptr inbounds i8, ptr %0, i64 32
  %6 = load ptr, ptr %5, align 8
  store ptr null, ptr %3, align 8
  store i64 0, ptr %4, align 8
  %7 = getelementptr inbounds i8, ptr %0, i64 44
  %8 = load i32, ptr %7, align 4
  %9 = call i32 (i32, ptr, ...) @zend_parse_parameters(i32 noundef %8, ptr noundef nonnull @.str.27, ptr noundef nonnull %4, ptr noundef nonnull %3) #18
  %10 = icmp eq i32 %9, -1
  br i1 %10, label %11, label %14

11:                                               ; preds = %2
  %12 = load ptr, ptr getelementptr inbounds (%struct._zend_executor_globals, ptr @executor_globals, i64 0, i32 50), align 8
  %13 = icmp ne ptr %12, null
  call void @llvm.assume(i1 %13)
  br label %23

14:                                               ; preds = %2
  %15 = getelementptr inbounds i8, ptr %6, i64 -312
  %16 = load ptr, ptr %15, align 8
  %.not = icmp eq ptr %16, null
  br i1 %.not, label %17, label %20

17:                                               ; preds = %14
  call void (ptr, ptr, ...) @zend_throw_error(ptr noundef null, ptr noundef nonnull @.str) #18
  %18 = load ptr, ptr getelementptr inbounds (%struct._zend_executor_globals, ptr @executor_globals, i64 0, i32 50), align 8
  %19 = icmp ne ptr %18, null
  call void @llvm.assume(i1 %19)
  br label %23

20:                                               ; preds = %14
  %21 = load i64, ptr %4, align 8
  %22 = load ptr, ptr %3, align 8
  call void @php_flock_common(ptr noundef nonnull %16, i64 noundef %21, i32 noundef 1, ptr noundef %22, ptr noundef %1) #18
  br label %23

23:                                               ; preds = %20, %17, %11
  ret void
}